; Function Attrs: mustprogress uwtable
define internal fastcc void @_ZN9grpc_core12_GLOBAL__N_110JsonWriter8ValueRawERKNSt7__cxx1112basic_stringIcSt11char_traitsIcESaIcEEE(ptr noundef nonnull align 8 dereferenceable(48) %0, ptr noundef nonnull readonly align 8 captures(none) dereferenceable(32) %1) unnamed_addr #0 align 2 personality ptr @__gxx_personality_v0 {
  %3 = getelementptr inbounds nuw i8, ptr %0, i64 9
  %4 = load i8, ptr %3, align 1, !tbaa !19, !range !38, !noundef !39
  %5 = trunc nuw i8 %4 to i1
  br i1 %5, label %7, label %6

6:                                                ; preds = %2
  tail call fastcc void @_ZN9grpc_core12_GLOBAL__N_110JsonWriter8ValueEndEv(ptr noundef nonnull align 8 dereferenceable(48) %0)
  br label %7

7:                                                ; preds = %6, %2
  tail call fastcc void @_ZN9grpc_core12_GLOBAL__N_110JsonWriter12OutputIndentEv(ptr noundef nonnull align 8 dereferenceable(48) %0)
  %8 = load ptr, ptr %1, align 8, !tbaa !23
  %9 = getelementptr inbounds nuw i8, ptr %1, i64 8
  %10 = load i64, ptr %9, align 8, !tbaa !21
  %11 = getelementptr inbounds nuw i8, ptr %0, i64 16
  %12 = load ptr, ptr %11, align 8, !tbaa !23
  %13 = getelementptr inbounds nuw i8, ptr %0, i64 32
  %14 = icmp eq ptr %12, %13
  %15 = getelementptr inbounds nuw i8, ptr %0, i64 24
  %16 = load i64, ptr %15, align 8, !tbaa !21
  br i1 %14, label %17, label %_ZNKSt7__cxx1112basic_stringIcSt11char_traitsIcESaIcEE8capacityEv.exit.i.i

17:                                               ; preds = %7
  %18 = icmp ult i64 %16, 16
  tail call void @llvm.assume(i1 %18)
  br label %_ZNKSt7__cxx1112basic_stringIcSt11char_traitsIcESaIcEE8capacityEv.exit.i.i

_ZNKSt7__cxx1112basic_stringIcSt11char_traitsIcESaIcEE8capacityEv.exit.i.i: ; preds = %17, %7
  %19 = load i64, ptr %13, align 8
  %20 = select i1 %14, i64 15, i64 %19
  %21 = sub i64 %20, %16
  %.not.i.i = icmp ult i64 %21, %10
  br i1 %.not.i.i, label %22, label %_ZN9grpc_core12_GLOBAL__N_110JsonWriter11OutputCheckEm.exit.i

22:                                               ; preds = %_ZNKSt7__cxx1112basic_stringIcSt11char_traitsIcESaIcEE8capacityEv.exit.i.i
  %23 = add i64 %10, 255
  %24 = sub i64 %23, %21
  %25 = and i64 %24, 4294967040
  br i1 %14, label %26, label %_ZNKSt7__cxx1112basic_stringIcSt11char_traitsIcESaIcEE8capacityEv.exit7.i.i

26:                                               ; preds = %22
  %27 = icmp ult i64 %16, 16
  tail call void @llvm.assume(i1 %27)
  br label %_ZNKSt7__cxx1112basic_stringIcSt11char_traitsIcESaIcEE8capacityEv.exit7.i.i

_ZNKSt7__cxx1112basic_stringIcSt11char_traitsIcESaIcEE8capacityEv.exit7.i.i: ; preds = %26, %22
  %28 = add i64 %25, %20
  tail call void @_ZNSt7__cxx1112basic_stringIcSt11char_traitsIcESaIcEE7reserveEm(ptr noundef nonnull align 8 dereferenceable(32) %11, i64 noundef %28)
  %.pre.i = load i64, ptr %15, align 8, !tbaa !21
  br label %_ZN9grpc_core12_GLOBAL__N_110JsonWriter11OutputCheckEm.exit.i

_ZN9grpc_core12_GLOBAL__N_110JsonWriter11OutputCheckEm.exit.i: ; preds = %_ZNKSt7__cxx1112basic_stringIcSt11char_traitsIcESaIcEE8capacityEv.exit7.i.i, %_ZNKSt7__cxx1112basic_stringIcSt11char_traitsIcESaIcEE8capacityEv.exit.i.i
  %29 = phi i64 [ %16, %_ZNKSt7__cxx1112basic_stringIcSt11char_traitsIcESaIcEE8capacityEv.exit.i.i ], [ %.pre.i, %_ZNKSt7__cxx1112basic_stringIcSt11char_traitsIcESaIcEE8capacityEv.exit7.i.i ]
  %30 = sub i64 4611686018427387903, %29
  %31 = icmp ult i64 %30, %10
  br i1 %31, label %32, label %_ZN9grpc_core12_GLOBAL__N_110JsonWriter12OutputStringESt17basic_string_viewIcSt11char_traitsIcEE.exit

32:                                               ; preds = %_ZN9grpc_core12_GLOBAL__N_110JsonWriter11OutputCheckEm.exit.i
  tail call void @_ZSt20__throw_length_errorPKc(ptr noundef nonnull @.str.6) #15
  unreachable

_ZN9grpc_core12_GLOBAL__N_110JsonWriter12OutputStringESt17basic_string_viewIcSt11char_traitsIcEE.exit: ; preds = %_ZN9grpc_core12_GLOBAL__N_110JsonWriter11OutputCheckEm.exit.i
  %33 = tail call noundef nonnull align 8 dereferenceable(32) ptr @_ZNSt7__cxx1112basic_stringIcSt11char_traitsIcESaIcEE9_M_appendEPKcm(ptr noundef nonnull align 8 dereferenceable(32) %11, ptr noundef %8, i64 noundef %10)
  store i8 0, ptr %3, align 1, !tbaa !19
  ret void
}